target datalayout = "e-m:e-p270:32:32-p271:32:32-p272:64:64-i64:64-i128:128-f80:128-n8:16:32:64-S128"
target triple = "x86_64-unknown-linux-gnu"

; Function Attrs: mustprogress uwtable
define noundef double @_ZNK8QuantLib21LocalVolTermStructure8localVolEddb(ptr noundef nonnull align 8 dereferenceable(68) %this, double noundef %t, double noundef %underlyingLevel, i1 noundef zeroext %extrapolate) #6 align 2 {
entry:
  %this.addr = alloca ptr, align 8
  %t.addr = alloca double, align 8
  %underlyingLevel.addr = alloca double, align 8
  %extrapolate.addr = alloca i8, align 1
  store ptr %this, ptr %this.addr, align 8, !tbaa !3
  store double %t, ptr %t.addr, align 8, !tbaa !25
  store double %underlyingLevel, ptr %underlyingLevel.addr, align 8, !tbaa !25
  %storedv = zext i1 %extrapolate to i8
  store i8 %storedv, ptr %extrapolate.addr, align 1, !tbaa !27
  %this1 = load ptr, ptr %this.addr, align 8
  %0 = load double, ptr %t.addr, align 8, !tbaa !25
  %1 = load i8, ptr %extrapolate.addr, align 1, !tbaa !27, !range !28, !noundef !29
  %loadedv = trunc i8 %1 to i1
  call void @_ZNK8QuantLib13TermStructure10checkRangeEdb(ptr noundef nonnull align 8 dereferenceable(64) %this1, double noundef %0, i1 noundef zeroext %loadedv)
  %2 = load double, ptr %underlyingLevel.addr, align 8, !tbaa !25
  %3 = load i8, ptr %extrapolate.addr, align 1, !tbaa !27, !range !28, !noundef !29
  %loadedv2 = trunc i8 %3 to i1
  call void @_ZNK8QuantLib23VolatilityTermStructure11checkStrikeEdb(ptr noundef nonnull align 8 dereferenceable(68) %this1, double noundef %2, i1 noundef zeroext %loadedv2)
  %4 = load double, ptr %t.addr, align 8, !tbaa !25
  %5 = load double, ptr %underlyingLevel.addr, align 8, !tbaa !25
  %vtable = load ptr, ptr %this1, align 8, !tbaa !22
  %vfn = getelementptr inbounds ptr, ptr %vtable, i64 13
  %6 = load ptr, ptr %vfn, align 8
  %call = call noundef double %6(ptr noundef nonnull align 8 dereferenceable(68) %this1, double noundef %4, double noundef %5)
  ret double %call
}