; Function Attrs: mustprogress uwtable
define noundef double @_ZNK8QuantLib21LocalVolTermStructure8localVolEddb(ptr noundef nonnull align 8 dereferenceable(68) %this, double noundef %t, double noundef %underlyingLevel, i1 noundef zeroext %extrapolate) local_unnamed_addr #5 align 2 {
entry:
  tail call void @_ZNK8QuantLib13TermStructure10checkRangeEdb(ptr noundef nonnull align 8 dereferenceable(64) %this, double noundef %t, i1 noundef zeroext %extrapolate)
  tail call void @_ZNK8QuantLib23VolatilityTermStructure11checkStrikeEdb(ptr noundef nonnull align 8 dereferenceable(68) %this, double noundef %underlyingLevel, i1 noundef zeroext %extrapolate)
  %vtable = load ptr, ptr %this, align 8, !tbaa !22
  %vfn = getelementptr inbounds i8, ptr %vtable, i64 104
  %0 = load ptr, ptr %vfn, align 8
  %call = tail call noundef double %0(ptr noundef nonnull align 8 dereferenceable(68) %this, double noundef %t, double noundef %underlyingLevel)
  ret double %call
}